target datalayout = "e-m:e-p270:32:32-p271:32:32-p272:64:64-i64:64-i128:128-f80:128-n8:16:32:64-S128"
target triple = "x86_64-pc-linux-gnu"

%struct.FilterParams = type { i32, double, ptr, ptr, ptr }

; Function Attrs: nounwind uwtable
define internal void @blend_subtract_10bit(ptr noundef %0, i64 noundef %1, ptr noundef %2, i64 noundef %3, ptr noundef %4, i64 noundef %5, i64 noundef %6, i64 noundef %7, ptr noundef %8, ptr noundef %9) #0 {
  %11 = alloca ptr, align 8
  %12 = alloca i64, align 8
  %13 = alloca ptr, align 8
  %14 = alloca i64, align 8
  %15 = alloca ptr, align 8
  %16 = alloca i64, align 8
  %17 = alloca i64, align 8
  %18 = alloca i64, align 8
  %19 = alloca ptr, align 8
  %20 = alloca ptr, align 8
  %21 = alloca ptr, align 8
  %22 = alloca ptr, align 8
  %23 = alloca ptr, align 8
  %24 = alloca float, align 4
  %25 = alloca i32, align 4
  %26 = alloca i32, align 4
  %27 = alloca i32, align 4
  store ptr %0, ptr %11, align 8, !tbaa !46
  store i64 %1, ptr %12, align 8, !tbaa !88
  store ptr %2, ptr %13, align 8, !tbaa !46
  store i64 %3, ptr %14, align 8, !tbaa !88
  store ptr %4, ptr %15, align 8, !tbaa !46
  store i64 %5, ptr %16, align 8, !tbaa !88
  store i64 %6, ptr %17, align 8, !tbaa !88
  store i64 %7, ptr %18, align 8, !tbaa !88
  store ptr %8, ptr %19, align 8, !tbaa !77
  store ptr %9, ptr %20, align 8, !tbaa !89
  call void @llvm.lifetime.start.p0(i64 8, ptr %21) #12
  %28 = load ptr, ptr %11, align 8, !tbaa !46
  store ptr %28, ptr %21, align 8, !tbaa !103
  call void @llvm.lifetime.start.p0(i64 8, ptr %22) #12
  %29 = load ptr, ptr %13, align 8, !tbaa !46
  store ptr %29, ptr %22, align 8, !tbaa !103
  call void @llvm.lifetime.start.p0(i64 8, ptr %23) #12
  %30 = load ptr, ptr %15, align 8, !tbaa !46
  store ptr %30, ptr %23, align 8, !tbaa !103
  call void @llvm.lifetime.start.p0(i64 4, ptr %24) #12
  %31 = load ptr, ptr %19, align 8, !tbaa !77
  %32 = getelementptr inbounds nuw %struct.FilterParams, ptr %31, i32 0, i32 1
  %33 = load double, ptr %32, align 8, !tbaa !82
  %34 = fptrunc nsz double %33 to float
  store float %34, ptr %24, align 4, !tbaa !99
  %35 = load i64, ptr %16, align 8, !tbaa !88
  %36 = udiv i64 %35, 2
  store i64 %36, ptr %16, align 8, !tbaa !88
  %37 = load i64, ptr %12, align 8, !tbaa !88
  %38 = udiv i64 %37, 2
  store i64 %38, ptr %12, align 8, !tbaa !88
  %39 = load i64, ptr %14, align 8, !tbaa !88
  %40 = udiv i64 %39, 2
  store i64 %40, ptr %14, align 8, !tbaa !88
  call void @llvm.lifetime.start.p0(i64 4, ptr %25) #12
  store i32 0, ptr %25, align 4, !tbaa !37
  br label %41

41:                                               ; preds = %121, %10
  %42 = load i32, ptr %25, align 4, !tbaa !37
  %43 = sext i32 %42 to i64
  %44 = load i64, ptr %18, align 8, !tbaa !88
  %45 = icmp slt i64 %43, %44
  br i1 %45, label %47, label %46

46:                                               ; preds = %41
  store i32 2, ptr %26, align 4
  call void @llvm.lifetime.end.p0(i64 4, ptr %25) #12
  br label %124

47:                                               ; preds = %41
  call void @llvm.lifetime.start.p0(i64 4, ptr %27) #12
  store i32 0, ptr %27, align 4, !tbaa !37
  br label %48

48:                                               ; preds = %108, %47
  %49 = load i32, ptr %27, align 4, !tbaa !37
  %50 = sext i32 %49 to i64
  %51 = load i64, ptr %17, align 8, !tbaa !88
  %52 = icmp slt i64 %50, %51
  br i1 %52, label %54, label %53

53:                                               ; preds = %48
  store i32 5, ptr %26, align 4
  call void @llvm.lifetime.end.p0(i64 4, ptr %27) #12
  br label %111

54:                                               ; preds = %48
  %55 = load ptr, ptr %21, align 8, !tbaa !103
  %56 = load i32, ptr %27, align 4, !tbaa !37
  %57 = sext i32 %56 to i64
  %58 = getelementptr inbounds i16, ptr %55, i64 %57
  %59 = load i16, ptr %58, align 2, !tbaa !105
  %60 = zext i16 %59 to i32
  %61 = sitofp i32 %60 to float
  %62 = load ptr, ptr %21, align 8, !tbaa !103
  %63 = load i32, ptr %27, align 4, !tbaa !37
  %64 = sext i32 %63 to i64
  %65 = getelementptr inbounds i16, ptr %62, i64 %64
  %66 = load i16, ptr %65, align 2, !tbaa !105
  %67 = zext i16 %66 to i32
  %68 = load ptr, ptr %22, align 8, !tbaa !103
  %69 = load i32, ptr %27, align 4, !tbaa !37
  %70 = sext i32 %69 to i64
  %71 = getelementptr inbounds i16, ptr %68, i64 %70
  %72 = load i16, ptr %71, align 2, !tbaa !105
  %73 = zext i16 %72 to i32
  %74 = sub nsw i32 %67, %73
  %75 = icmp sgt i32 0, %74
  br i1 %75, label %76, label %77

76:                                               ; preds = %54
  br label %91

77:                                               ; preds = %54
  %78 = load ptr, ptr %21, align 8, !tbaa !103
  %79 = load i32, ptr %27, align 4, !tbaa !37
  %80 = sext i32 %79 to i64
  %81 = getelementptr inbounds i16, ptr %78, i64 %80
  %82 = load i16, ptr %81, align 2, !tbaa !105
  %83 = zext i16 %82 to i32
  %84 = load ptr, ptr %22, align 8, !tbaa !103
  %85 = load i32, ptr %27, align 4, !tbaa !37
  %86 = sext i32 %85 to i64
  %87 = getelementptr inbounds i16, ptr %84, i64 %86
  %88 = load i16, ptr %87, align 2, !tbaa !105
  %89 = zext i16 %88 to i32
  %90 = sub nsw i32 %83, %89
  br label %91

91:                                               ; preds = %77, %76
  %92 = phi i32 [ 0, %76 ], [ %90, %77 ]
  %93 = load ptr, ptr %21, align 8, !tbaa !103
  %94 = load i32, ptr %27, align 4, !tbaa !37
  %95 = sext i32 %94 to i64
  %96 = getelementptr inbounds i16, ptr %93, i64 %95
  %97 = load i16, ptr %96, align 2, !tbaa !105
  %98 = zext i16 %97 to i32
  %99 = sub nsw i32 %92, %98
  %100 = sitofp i32 %99 to float
  %101 = load float, ptr %24, align 4, !tbaa !99
  %102 = call nsz float @llvm.fmuladd.f32(float %100, float %101, float %61)
  %103 = fptoui float %102 to i16
  %104 = load ptr, ptr %23, align 8, !tbaa !103
  %105 = load i32, ptr %27, align 4, !tbaa !37
  %106 = sext i32 %105 to i64
  %107 = getelementptr inbounds i16, ptr %104, i64 %106
  store i16 %103, ptr %107, align 2, !tbaa !105
  br label %108

108:                                              ; preds = %91
  %109 = load i32, ptr %27, align 4, !tbaa !37
  %110 = add nsw i32 %109, 1
  store i32 %110, ptr %27, align 4, !tbaa !37
  br label %48, !llvm.loop !330

111:                                              ; preds = %53
  %112 = load i64, ptr %16, align 8, !tbaa !88
  %113 = load ptr, ptr %23, align 8, !tbaa !103
  %114 = getelementptr inbounds i16, ptr %113, i64 %112
  store ptr %114, ptr %23, align 8, !tbaa !103
  %115 = load i64, ptr %12, align 8, !tbaa !88
  %116 = load ptr, ptr %21, align 8, !tbaa !103
  %117 = getelementptr inbounds i16, ptr %116, i64 %115
  store ptr %117, ptr %21, align 8, !tbaa !103
  %118 = load i64, ptr %14, align 8, !tbaa !88
  %119 = load ptr, ptr %22, align 8, !tbaa !103
  %120 = getelementptr inbounds i16, ptr %119, i64 %118
  store ptr %120, ptr %22, align 8, !tbaa !103
  br label %121

121:                                              ; preds = %111
  %122 = load i32, ptr %25, align 4, !tbaa !37
  %123 = add nsw i32 %122, 1
  store i32 %123, ptr %25, align 4, !tbaa !37
  br label %41, !llvm.loop !331

124:                                              ; preds = %46
  call void @llvm.lifetime.end.p0(i64 4, ptr %24) #12
  call void @llvm.lifetime.end.p0(i64 8, ptr %23) #12
  call void @llvm.lifetime.end.p0(i64 8, ptr %22) #12
  call void @llvm.lifetime.end.p0(i64 8, ptr %21) #12
  ret void
}